target datalayout = "e-m:e-p270:32:32-p271:32:32-p272:64:64-i64:64-i128:128-f80:128-n8:16:32:64-S128"
target triple = "x86_64-pc-linux-gnu"

; Function Attrs: mustprogress uwtable
define noundef i32 @_ZNK10open_spiel9solitaire14SolitaireState13CurrentPlayerEv(ptr noundef nonnull align 8 dereferenceable(309) %0) unnamed_addr #4 align 2 {
  %2 = alloca i32, align 4
  %3 = alloca ptr, align 8
  store ptr %0, ptr %3, align 8
  %4 = load ptr, ptr %3, align 8
  %5 = load ptr, ptr %4, align 8
  %6 = getelementptr inbounds ptr, ptr %5, i64 11
  %7 = load ptr, ptr %6, align 8
  %8 = call noundef zeroext i1 %7(ptr noundef nonnull align 8 dereferenceable(309) %4)
  br i1 %8, label %9, label %10

9:                                                ; preds = %1
  store i32 -4, ptr %2, align 4
  br label %17

10:                                               ; preds = %1
  %11 = load ptr, ptr %4, align 8
  %12 = getelementptr inbounds ptr, ptr %11, i64 16
  %13 = load ptr, ptr %12, align 8
  %14 = call noundef zeroext i1 %13(ptr noundef nonnull align 8 dereferenceable(309) %4)
  br i1 %14, label %15, label %16

15:                                               ; preds = %10
  store i32 -1, ptr %2, align 4
  br label %17

16:                                               ; preds = %10
  store i32 0, ptr %2, align 4
  br label %17

17:                                               ; preds = %16, %15, %9
  %18 = load i32, ptr %2, align 4
  ret i32 %18
}