; Function Attrs: mustprogress uwtable
define noundef range(i32 -4, 1) i32 @_ZNK10open_spiel9solitaire14SolitaireState13CurrentPlayerEv(ptr noundef nonnull align 8 dereferenceable(309) %0) unnamed_addr #3 align 2 {
  %2 = load ptr, ptr %0, align 8
  %3 = getelementptr inbounds i8, ptr %2, i64 88
  %4 = load ptr, ptr %3, align 8
  %5 = tail call noundef zeroext i1 %4(ptr noundef nonnull align 8 dereferenceable(309) %0)
  br i1 %5, label %11, label %6

6:                                                ; preds = %1
  %7 = load ptr, ptr %0, align 8
  %8 = getelementptr inbounds i8, ptr %7, i64 128
  %9 = load ptr, ptr %8, align 8
  %10 = tail call noundef zeroext i1 %9(ptr noundef nonnull align 8 dereferenceable(309) %0)
  %. = sext i1 %10 to i32
  br label %11

11:                                               ; preds = %6, %1
  %.0 = phi i32 [ -4, %1 ], [ %., %6 ]
  ret i32 %.0
}